; Function Attrs: nounwind uwtable
define internal fastcc range(i32 -2147483648, 2) i32 @r_sing_owner(ptr noundef initializes((24, 28)) %0) unnamed_addr #0 {
  %2 = getelementptr inbounds nuw i8, ptr %0, i64 8
  %3 = load i32, ptr %2, align 8
  %4 = getelementptr inbounds nuw i8, ptr %0, i64 24
  store i32 %3, ptr %4, align 8
  %5 = tail call i32 @find_among_b(ptr noundef %0, ptr noundef nonnull @a_10, i32 noundef 31) #2
  %.not = icmp eq i32 %5, 0
  br i1 %.not, label %21, label %6

6:                                                ; preds = %1
  %7 = load i32, ptr %2, align 8
  %8 = getelementptr inbounds nuw i8, ptr %0, i64 20
  store i32 %7, ptr %8, align 4
  %9 = getelementptr i8, ptr %0, i64 40
  %.val37 = load ptr, ptr %9, align 8
  %.val37.val = load i32, ptr %.val37, align 4
  %.not.i.not = icmp sgt i32 %.val37.val, %7
  br i1 %.not.i.not, label %21, label %10

10:                                               ; preds = %6
  switch i32 %5, label %20 [
    i32 1, label %11
    i32 2, label %14
    i32 3, label %17
  ]

11:                                               ; preds = %10
  %12 = tail call i32 @slice_del(ptr noundef nonnull %0) #2
  %13 = icmp sgt i32 %12, -1
  br i1 %13, label %20, label %21

14:                                               ; preds = %10
  %15 = tail call i32 @slice_from_s(ptr noundef nonnull %0, i32 noundef 1, ptr noundef nonnull @s_10) #2
  %16 = icmp sgt i32 %15, -1
  br i1 %16, label %20, label %21

17:                                               ; preds = %10
  %18 = tail call i32 @slice_from_s(ptr noundef nonnull %0, i32 noundef 1, ptr noundef nonnull @s_11) #2
  %19 = icmp sgt i32 %18, -1
  br i1 %19, label %20, label %21

20:                                               ; preds = %17, %14, %11, %10
  br label %21

21:                                               ; preds = %1, %11, %14, %17, %6, %20
  %.0 = phi i32 [ 1, %20 ], [ %18, %17 ], [ %15, %14 ], [ %12, %11 ], [ 0, %6 ], [ 0, %1 ]
  ret i32 %.0
}